; Function Attrs: cold inlinehint noreturn nounwind uwtable
define internal fastcc void @err_sys_with_errno(ptr noundef %0) unnamed_addr #10 {
  %2 = load ptr, ptr @stderr, align 8, !tbaa !14
  %3 = tail call ptr @__errno_location() #16
  %4 = load i32, ptr %3, align 4, !tbaa !31
  %5 = tail call ptr @strerror(i32 noundef %4) #14
  %6 = tail call i32 (ptr, ptr, ...) @fprintf(ptr noundef %2, ptr noundef nonnull @.str.37, ptr noundef %0, ptr noundef %5) #17
  tail call void @exit(i32 noundef 1) #19
  unreachable
}